target datalayout = "e-m:e-p270:32:32-p271:32:32-p272:64:64-i64:64-i128:128-f80:128-n8:16:32:64-S128"
target triple = "x86_64-pc-linux-gnu"

%struct.png_info_def = type { i32, i32, i32, i64, ptr, i16, i16, i8, i8, i8, i8, i8, i8, i8, i8, [8 x i8], %struct.png_colorspace, ptr, ptr, i32, i32, i32, ptr, %struct.png_time_struct, %struct.png_color_8_struct, ptr, %struct.png_color_16_struct, %struct.png_color_16_struct, i32, i32, i8, i32, i32, i8, ptr, ptr, i32, i32, ptr, ptr, i8, i8, i32, ptr, i32, ptr, i32, i8, ptr, ptr, ptr }
%struct.png_colorspace = type { i32, %struct.png_xy, %struct.png_XYZ, i16, i16 }
%struct.png_xy = type { i32, i32, i32, i32, i32, i32, i32, i32 }
%struct.png_XYZ = type { i32, i32, i32, i32, i32, i32, i32, i32, i32 }
%struct.png_time_struct = type { i16, i8, i8, i8, i8, i8 }
%struct.png_color_8_struct = type { i8, i8, i8, i8, i8 }
%struct.png_color_16_struct = type { i8, i16, i16, i16, i16 }

; Function Attrs: nounwind uwtable
define hidden void @png_set_cHRM_fixed(ptr noalias noundef %0, ptr noalias noundef %1, i32 noundef %2, i32 noundef %3, i32 noundef %4, i32 noundef %5, i32 noundef %6, i32 noundef %7, i32 noundef %8, i32 noundef %9) #0 {
  %11 = alloca ptr, align 8
  %12 = alloca ptr, align 8
  %13 = alloca i32, align 4
  %14 = alloca i32, align 4
  %15 = alloca i32, align 4
  %16 = alloca i32, align 4
  %17 = alloca i32, align 4
  %18 = alloca i32, align 4
  %19 = alloca i32, align 4
  %20 = alloca i32, align 4
  %21 = alloca %struct.png_xy, align 4
  store ptr %0, ptr %11, align 8
  store ptr %1, ptr %12, align 8
  store i32 %2, ptr %13, align 4
  store i32 %3, ptr %14, align 4
  store i32 %4, ptr %15, align 4
  store i32 %5, ptr %16, align 4
  store i32 %6, ptr %17, align 4
  store i32 %7, ptr %18, align 4
  store i32 %8, ptr %19, align 4
  store i32 %9, ptr %20, align 4
  %22 = load ptr, ptr %11, align 8
  %23 = icmp eq ptr %22, null
  br i1 %23, label %27, label %24

24:                                               ; preds = %10
  %25 = load ptr, ptr %12, align 8
  %26 = icmp eq ptr %25, null
  br i1 %26, label %27, label %28

27:                                               ; preds = %24, %10
  br label %61

28:                                               ; preds = %24
  %29 = load i32, ptr %15, align 4
  %30 = getelementptr inbounds %struct.png_xy, ptr %21, i32 0, i32 0
  store i32 %29, ptr %30, align 4
  %31 = load i32, ptr %16, align 4
  %32 = getelementptr inbounds %struct.png_xy, ptr %21, i32 0, i32 1
  store i32 %31, ptr %32, align 4
  %33 = load i32, ptr %17, align 4
  %34 = getelementptr inbounds %struct.png_xy, ptr %21, i32 0, i32 2
  store i32 %33, ptr %34, align 4
  %35 = load i32, ptr %18, align 4
  %36 = getelementptr inbounds %struct.png_xy, ptr %21, i32 0, i32 3
  store i32 %35, ptr %36, align 4
  %37 = load i32, ptr %19, align 4
  %38 = getelementptr inbounds %struct.png_xy, ptr %21, i32 0, i32 4
  store i32 %37, ptr %38, align 4
  %39 = load i32, ptr %20, align 4
  %40 = getelementptr inbounds %struct.png_xy, ptr %21, i32 0, i32 5
  store i32 %39, ptr %40, align 4
  %41 = load i32, ptr %13, align 4
  %42 = getelementptr inbounds %struct.png_xy, ptr %21, i32 0, i32 6
  store i32 %41, ptr %42, align 4
  %43 = load i32, ptr %14, align 4
  %44 = getelementptr inbounds %struct.png_xy, ptr %21, i32 0, i32 7
  store i32 %43, ptr %44, align 4
  %45 = load ptr, ptr %11, align 8
  %46 = load ptr, ptr %12, align 8
  %47 = getelementptr inbounds %struct.png_info_def, ptr %46, i32 0, i32 16
  %48 = call i32 @png_colorspace_set_chromaticities(ptr noundef %45, ptr noundef %47, ptr noundef %21, i32 noundef 2)
  %49 = icmp ne i32 %48, 0
  br i1 %49, label %50, label %58

50:                                               ; preds = %28
  %51 = load ptr, ptr %12, align 8
  %52 = getelementptr inbounds %struct.png_info_def, ptr %51, i32 0, i32 16
  %53 = getelementptr inbounds %struct.png_colorspace, ptr %52, i32 0, i32 4
  %54 = load i16, ptr %53, align 2
  %55 = zext i16 %54 to i32
  %56 = or i32 %55, 16
  %57 = trunc i32 %56 to i16
  store i16 %57, ptr %53, align 2
  br label %58

58:                                               ; preds = %50, %28
  %59 = load ptr, ptr %11, align 8
  %60 = load ptr, ptr %12, align 8
  call void @png_colorspace_sync_info(ptr noundef %59, ptr noundef %60)
  br label %61

61:                                               ; preds = %58, %27
  ret void
}